target datalayout = "e-m:e-p270:32:32-p271:32:32-p272:64:64-i64:64-i128:128-f80:128-n8:16:32:64-S128"
target triple = "x86_64-pc-linux-gnu"

%"struct.rocksdb::(anonymous namespace)::SVCleanupParams" = type { ptr, ptr, i8 }

; Function Attrs: mustprogress uwtable
define void @_ZN7rocksdb15ForwardIterator17DeferredSVCleanupEPv(ptr noundef %0) #4 align 2 {
  %2 = alloca ptr, align 8
  %3 = alloca ptr, align 8
  store ptr %0, ptr %2, align 8, !tbaa !51
  call void @llvm.lifetime.start.p0(i64 8, ptr %3) #6
  %4 = load ptr, ptr %2, align 8, !tbaa !51
  store ptr %4, ptr %3, align 8, !tbaa !368
  %5 = load ptr, ptr %3, align 8, !tbaa !368
  %6 = getelementptr inbounds nuw %"struct.rocksdb::(anonymous namespace)::SVCleanupParams", ptr %5, i32 0, i32 0
  %7 = load ptr, ptr %6, align 8, !tbaa !370
  %8 = load ptr, ptr %3, align 8, !tbaa !368
  %9 = getelementptr inbounds nuw %"struct.rocksdb::(anonymous namespace)::SVCleanupParams", ptr %8, i32 0, i32 1
  %10 = load ptr, ptr %9, align 8, !tbaa !372
  %11 = load ptr, ptr %3, align 8, !tbaa !368
  %12 = getelementptr inbounds nuw %"struct.rocksdb::(anonymous namespace)::SVCleanupParams", ptr %11, i32 0, i32 2
  %13 = load i8, ptr %12, align 8, !tbaa !373, !range !145, !noundef !146
  %14 = trunc i8 %13 to i1
  call void @_ZN7rocksdb15ForwardIterator9SVCleanupEPNS_6DBImplEPNS_12SuperVersionEb(ptr noundef %7, ptr noundef %10, i1 noundef zeroext %14)
  %15 = load ptr, ptr %3, align 8, !tbaa !368
  %16 = icmp eq ptr %15, null
  br i1 %16, label %18, label %17

17:                                               ; preds = %1
  call void @_ZdlPvm(ptr noundef %15, i64 noundef 24) #26
  br label %18

18:                                               ; preds = %17, %1
  call void @llvm.lifetime.end.p0(i64 8, ptr %3) #6
  ret void
}