; Function Attrs: mustprogress uwtable
define void @_ZN7rocksdb15ForwardIterator17DeferredSVCleanupEPv(ptr noundef %0) #5 align 2 {
  %2 = load ptr, ptr %0, align 8, !tbaa !538
  %3 = getelementptr inbounds nuw i8, ptr %0, i64 8
  %4 = load ptr, ptr %3, align 8, !tbaa !540
  %5 = getelementptr inbounds nuw i8, ptr %0, i64 16
  %6 = load i8, ptr %5, align 8, !tbaa !541, !range !290, !noundef !291
  %7 = trunc nuw i8 %6 to i1
  tail call void @_ZN7rocksdb15ForwardIterator9SVCleanupEPNS_6DBImplEPNS_12SuperVersionEb(ptr noundef %2, ptr noundef %4, i1 noundef zeroext %7)
  tail call void @_ZdlPvm(ptr noundef %0, i64 noundef 24) #29
  ret void
}